; Function Attrs: mustprogress uwtable
define noundef zeroext i1 @_ZNK3net11QuicSession21WillingAndAbleToWriteEv(ptr noundef nonnull align 8 dereferenceable(2044) %0) unnamed_addr #0 align 2 {
  %2 = getelementptr inbounds nuw i8, ptr %0, i64 1897
  %3 = load i8, ptr %2, align 1, !tbaa !286, !range !256, !noundef !257
  %4 = trunc nuw i8 %3 to i1
  %5 = getelementptr inbounds nuw i8, ptr %0, i64 1898
  %6 = load i8, ptr %5, align 2, !range !256
  %7 = trunc nuw i8 %6 to i1
  %8 = select i1 %4, i1 true, i1 %7
  br i1 %8, label %16, label %9

9:                                                ; preds = %1
  %10 = getelementptr inbounds nuw i8, ptr %0, i64 1944
  %11 = tail call noundef zeroext i1 @_ZNK3net18QuicFlowController9IsBlockedEv(ptr noundef nonnull align 8 dereferenceable(96) %10)
  br i1 %11, label %16, label %12

12:                                               ; preds = %9
  %13 = getelementptr inbounds nuw i8, ptr %0, i64 1064
  %14 = load i64, ptr %13, align 8, !tbaa !285
  %15 = icmp ne i64 %14, 0
  br label %16

16:                                               ; preds = %9, %12, %1
  %17 = phi i1 [ true, %1 ], [ false, %9 ], [ %15, %12 ]
  ret i1 %17
}